target datalayout = "e-m:e-p270:32:32-p271:32:32-p272:64:64-i64:64-i128:128-f80:128-n8:16:32:64-S128"
target triple = "x86_64-pc-linux-gnu"

%struct.decNumber = type { i32, i32, i8, [1 x i16] }

@d2utable = dso_local constant [50 x i8] c"\00\01\01\01\02\02\02\03\03\03\04\04\04\05\05\05\06\06\06\07\07\07\08\08\08\09\09\09\0A\0A\0A\0B\0B\0B\0C\0C\0C\0D\0D\0D\0E\0E\0E\0F\0F\0F\10\10\10\11", align 16

; Function Attrs: nounwind uwtable
define dso_local ptr @decNumberSetBCD(ptr noundef %0, ptr noundef %1, i32 noundef %2) #0 {
  %4 = alloca ptr, align 8
  %5 = alloca ptr, align 8
  %6 = alloca i32, align 4
  %7 = alloca ptr, align 8
  %8 = alloca ptr, align 8
  %9 = alloca i32, align 4
  store ptr %0, ptr %4, align 8, !tbaa !4
  store ptr %1, ptr %5, align 8, !tbaa !23
  store i32 %2, ptr %6, align 4, !tbaa !8
  call void @llvm.lifetime.start.p0(i64 8, ptr %7) #7
  %10 = load ptr, ptr %4, align 8, !tbaa !4
  %11 = getelementptr inbounds nuw %struct.decNumber, ptr %10, i32 0, i32 3
  %12 = getelementptr inbounds [1 x i16], ptr %11, i64 0, i64 0
  %13 = load ptr, ptr %4, align 8, !tbaa !4
  %14 = getelementptr inbounds nuw %struct.decNumber, ptr %13, i32 0, i32 0
  %15 = load i32, ptr %14, align 4, !tbaa !18
  %16 = icmp sle i32 %15, 49
  br i1 %16, label %17, label %25

17:                                               ; preds = %3
  %18 = load ptr, ptr %4, align 8, !tbaa !4
  %19 = getelementptr inbounds nuw %struct.decNumber, ptr %18, i32 0, i32 0
  %20 = load i32, ptr %19, align 4, !tbaa !18
  %21 = sext i32 %20 to i64
  %22 = getelementptr inbounds [50 x i8], ptr @d2utable, i64 0, i64 %21
  %23 = load i8, ptr %22, align 1, !tbaa !25
  %24 = zext i8 %23 to i32
  br label %32

25:                                               ; preds = %3
  %26 = load ptr, ptr %4, align 8, !tbaa !4
  %27 = getelementptr inbounds nuw %struct.decNumber, ptr %26, i32 0, i32 0
  %28 = load i32, ptr %27, align 4, !tbaa !18
  %29 = add nsw i32 %28, 3
  %30 = sub nsw i32 %29, 1
  %31 = sdiv i32 %30, 3
  br label %32

32:                                               ; preds = %25, %17
  %33 = phi i32 [ %24, %17 ], [ %31, %25 ]
  %34 = sext i32 %33 to i64
  %35 = getelementptr inbounds i16, ptr %12, i64 %34
  %36 = getelementptr inbounds i16, ptr %35, i64 -1
  store ptr %36, ptr %7, align 8, !tbaa !12
  call void @llvm.lifetime.start.p0(i64 8, ptr %8) #7
  %37 = load ptr, ptr %5, align 8, !tbaa !23
  store ptr %37, ptr %8, align 8, !tbaa !23
  call void @llvm.lifetime.start.p0(i64 4, ptr %9) #7
  %38 = load i32, ptr %6, align 4, !tbaa !8
  %39 = load i32, ptr %6, align 4, !tbaa !8
  %40 = icmp ule i32 %39, 49
  br i1 %40, label %41, label %47

41:                                               ; preds = %32
  %42 = load i32, ptr %6, align 4, !tbaa !8
  %43 = zext i32 %42 to i64
  %44 = getelementptr inbounds nuw [50 x i8], ptr @d2utable, i64 0, i64 %43
  %45 = load i8, ptr %44, align 1, !tbaa !25
  %46 = zext i8 %45 to i32
  br label %52

47:                                               ; preds = %32
  %48 = load i32, ptr %6, align 4, !tbaa !8
  %49 = add i32 %48, 3
  %50 = sub i32 %49, 1
  %51 = udiv i32 %50, 3
  br label %52

52:                                               ; preds = %47, %41
  %53 = phi i32 [ %46, %41 ], [ %51, %47 ]
  %54 = sub i32 %53, 1
  %55 = mul i32 %54, 3
  %56 = sub i32 %38, %55
  store i32 %56, ptr %9, align 4, !tbaa !8
  br label %57

57:                                               ; preds = %90, %52
  %58 = load ptr, ptr %7, align 8, !tbaa !12
  %59 = load ptr, ptr %4, align 8, !tbaa !4
  %60 = getelementptr inbounds nuw %struct.decNumber, ptr %59, i32 0, i32 3
  %61 = getelementptr inbounds [1 x i16], ptr %60, i64 0, i64 0
  %62 = icmp uge ptr %58, %61
  br i1 %62, label %63, label %93

63:                                               ; preds = %57
  %64 = load ptr, ptr %7, align 8, !tbaa !12
  store i16 0, ptr %64, align 2, !tbaa !14
  br label %65

65:                                               ; preds = %84, %63
  %66 = load i32, ptr %9, align 4, !tbaa !8
  %67 = icmp sgt i32 %66, 0
  br i1 %67, label %68, label %89

68:                                               ; preds = %65
  %69 = load ptr, ptr %7, align 8, !tbaa !12
  %70 = load i16, ptr %69, align 2, !tbaa !14
  %71 = zext i16 %70 to i32
  %72 = shl i32 %71, 1
  %73 = load ptr, ptr %7, align 8, !tbaa !12
  %74 = load i16, ptr %73, align 2, !tbaa !14
  %75 = zext i16 %74 to i32
  %76 = shl i32 %75, 3
  %77 = add nsw i32 %72, %76
  %78 = load ptr, ptr %8, align 8, !tbaa !23
  %79 = load i8, ptr %78, align 1, !tbaa !25
  %80 = zext i8 %79 to i32
  %81 = add nsw i32 %77, %80
  %82 = trunc i32 %81 to i16
  %83 = load ptr, ptr %7, align 8, !tbaa !12
  store i16 %82, ptr %83, align 2, !tbaa !14
  br label %84

84:                                               ; preds = %68
  %85 = load ptr, ptr %8, align 8, !tbaa !23
  %86 = getelementptr inbounds nuw i8, ptr %85, i32 1
  store ptr %86, ptr %8, align 8, !tbaa !23
  %87 = load i32, ptr %9, align 4, !tbaa !8
  %88 = add nsw i32 %87, -1
  store i32 %88, ptr %9, align 4, !tbaa !8
  br label %65, !llvm.loop !93

89:                                               ; preds = %65
  store i32 3, ptr %9, align 4, !tbaa !8
  br label %90

90:                                               ; preds = %89
  %91 = load ptr, ptr %7, align 8, !tbaa !12
  %92 = getelementptr inbounds i16, ptr %91, i32 -1
  store ptr %92, ptr %7, align 8, !tbaa !12
  br label %57, !llvm.loop !94

93:                                               ; preds = %57
  %94 = load i32, ptr %6, align 4, !tbaa !8
  %95 = load ptr, ptr %4, align 8, !tbaa !4
  %96 = getelementptr inbounds nuw %struct.decNumber, ptr %95, i32 0, i32 0
  store i32 %94, ptr %96, align 4, !tbaa !18
  %97 = load ptr, ptr %4, align 8, !tbaa !4
  call void @llvm.lifetime.end.p0(i64 4, ptr %9) #7
  call void @llvm.lifetime.end.p0(i64 8, ptr %8) #7
  call void @llvm.lifetime.end.p0(i64 8, ptr %7) #7
  ret ptr %97
}