; Function Attrs: nofree norecurse nosync nounwind memory(argmem: readwrite) uwtable
define dso_local noundef ptr @decNumberSetBCD(ptr noundef returned captures(ret: address, provenance) %0, ptr noundef readonly captures(none) %1, i32 noundef %2) local_unnamed_addr #0 {
  %4 = load i32, ptr %0, align 4, !tbaa !10
  %5 = icmp slt i32 %4, 50
  br i1 %5, label %6, label %11

6:                                                ; preds = %3
  %7 = sext i32 %4 to i64
  %8 = getelementptr inbounds [50 x i8], ptr @d2utable, i64 0, i64 %7
  %9 = load i8, ptr %8, align 1, !tbaa !19
  %10 = zext i8 %9 to i32
  br label %14

11:                                               ; preds = %3
  %12 = add nuw nsw i32 %4, 2
  %13 = udiv i32 %12, 3
  br label %14

14:                                               ; preds = %11, %6
  %15 = phi i32 [ %10, %6 ], [ %13, %11 ]
  %16 = shl nuw nsw i32 %15, 1
  %narrow = add nuw nsw i32 %16, 8
  %.add30 = zext nneg i32 %narrow to i64
  %17 = icmp ult i32 %2, 50
  br i1 %17, label %18, label %23

18:                                               ; preds = %14
  %19 = zext nneg i32 %2 to i64
  %20 = getelementptr inbounds nuw [50 x i8], ptr @d2utable, i64 0, i64 %19
  %21 = load i8, ptr %20, align 1, !tbaa !19
  %22 = zext i8 %21 to i32
  br label %26

23:                                               ; preds = %14
  %24 = add i32 %2, 2
  %25 = udiv i32 %24, 3
  br label %26

26:                                               ; preds = %23, %18
  %27 = phi i32 [ %22, %18 ], [ %25, %23 ]
  %.not37 = icmp eq i32 %15, 0
  br i1 %.not37, label %._crit_edge44, label %.lr.ph43.preheader

.lr.ph43.preheader:                               ; preds = %26
  %.neg29 = add i32 %2, 3
  %.neg = mul i32 %27, -3
  %28 = add i32 %.neg29, %.neg
  br label %.lr.ph43

.lr.ph43:                                         ; preds = %.lr.ph43.preheader, %._crit_edge
  %.040 = phi i32 [ 3, %._crit_edge ], [ %28, %.lr.ph43.preheader ]
  %.02239 = phi ptr [ %.123.lcssa, %._crit_edge ], [ %1, %.lr.ph43.preheader ]
  %.024.idx38 = phi i64 [ %.024.add, %._crit_edge ], [ %.add30, %.lr.ph43.preheader ]
  %.024.ptr41 = getelementptr inbounds i8, ptr %0, i64 %.024.idx38
  store i16 0, ptr %.024.ptr41, align 2, !tbaa !11
  %29 = icmp sgt i32 %.040, 0
  br i1 %29, label %.lr.ph, label %._crit_edge

.lr.ph:                                           ; preds = %.lr.ph43, %.lr.ph
  %30 = phi i16 [ %34, %.lr.ph ], [ 0, %.lr.ph43 ]
  %.135 = phi i32 [ %36, %.lr.ph ], [ %.040, %.lr.ph43 ]
  %.12334 = phi ptr [ %35, %.lr.ph ], [ %.02239, %.lr.ph43 ]
  %31 = mul i16 %30, 10
  %32 = load i8, ptr %.12334, align 1, !tbaa !19
  %33 = zext i8 %32 to i16
  %34 = add i16 %31, %33
  store i16 %34, ptr %.024.ptr41, align 2, !tbaa !11
  %35 = getelementptr inbounds nuw i8, ptr %.12334, i64 1
  %36 = add nsw i32 %.135, -1
  %37 = icmp samesign ugt i32 %.135, 1
  br i1 %37, label %.lr.ph, label %._crit_edge, !llvm.loop !78

._crit_edge:                                      ; preds = %.lr.ph, %.lr.ph43
  %.123.lcssa = phi ptr [ %.02239, %.lr.ph43 ], [ %35, %.lr.ph ]
  %.024.add = add nsw i64 %.024.idx38, -2
  %.not = icmp slt i64 %.024.idx38, 12
  br i1 %.not, label %._crit_edge44, label %.lr.ph43, !llvm.loop !79

._crit_edge44:                                    ; preds = %._crit_edge, %26
  store i32 %2, ptr %0, align 4, !tbaa !10
  ret ptr %0
}